; ModuleID = '40/2648.c'
source_filename = "40/2648.c"
target datalayout = "e-m:e-p270:32:32-p271:32:32-p272:64:64-i64:64-f80:128-n8:16:32:64-S128"
target triple = "x86_64-pc-linux-gnu"

@.str = private unnamed_addr constant [4 x i8] c"%lf\00", align 1
@.str.1 = private unnamed_addr constant [7 x i8] c"%6.4f\0A\00", align 1
@.str.2 = private unnamed_addr constant [14 x i8] c"Invalid input\00", align 1

; Function Attrs: noinline nounwind uwtable
define dso_local i32 @main(i32 %0, i8** %1) #0 {
  %3 = alloca i32, align 4
  %4 = alloca i32, align 4
  %5 = alloca i8**, align 8
  %6 = alloca double, align 8
  %7 = alloca double, align 8
  %8 = alloca double, align 8
  %9 = alloca double, align 8
  %10 = alloca double, align 8
  %11 = alloca double, align 8
  %12 = alloca double, align 8
  %13 = alloca double, align 8
  store i32 0, i32* %3, align 4
  store i32 %0, i32* %4, align 4
  store i8** %1, i8*** %5, align 8
  %14 = call i32 (i8*, ...) @__isoc99_scanf(i8* getelementptr inbounds ([4 x i8], [4 x i8]* @.str, i64 0, i64 0), double* %7)
  %15 = call i32 (i8*, ...) @__isoc99_scanf(i8* getelementptr inbounds ([4 x i8], [4 x i8]* @.str, i64 0, i64 0), double* %8)
  %16 = call i32 (i8*, ...) @__isoc99_scanf(i8* getelementptr inbounds ([4 x i8], [4 x i8]* @.str, i64 0, i64 0), double* %9)
  %17 = call i32 (i8*, ...) @__isoc99_scanf(i8* getelementptr inbounds ([4 x i8], [4 x i8]* @.str, i64 0, i64 0), double* %10)
  %18 = call i32 (i8*, ...) @__isoc99_scanf(i8* getelementptr inbounds ([4 x i8], [4 x i8]* @.str, i64 0, i64 0), double* %13)
  %19 = load double, double* %13, align 8
  %20 = fmul double %19, 0x400921FB4D12D84A
  %21 = fdiv double %20, 3.600000e+02
  store double %21, double* %13, align 8
  %22 = load double, double* %7, align 8
  %23 = load double, double* %8, align 8
  %24 = fadd double %22, %23
  %25 = load double, double* %9, align 8
  %26 = fadd double %24, %25
  %27 = load double, double* %10, align 8
  %28 = fadd double %26, %27
  %29 = fdiv double %28, 2.000000e+00
  store double %29, double* %11, align 8
  %30 = load double, double* %13, align 8
  %31 = call double @cos(double %30) #3
  store double %31, double* %6, align 8
  %32 = load double, double* %11, align 8
  %33 = load double, double* %7, align 8
  %34 = fsub double %32, %33
  %35 = load double, double* %11, align 8
  %36 = load double, double* %8, align 8
  %37 = fsub double %35, %36
  %38 = fmul double %34, %37
  %39 = load double, double* %11, align 8
  %40 = load double, double* %9, align 8
  %41 = fsub double %39, %40
  %42 = fmul double %38, %41
  %43 = load double, double* %11, align 8
  %44 = load double, double* %10, align 8
  %45 = fsub double %43, %44
  %46 = fmul double %42, %45
  %47 = load double, double* %7, align 8
  %48 = load double, double* %8, align 8
  %49 = fmul double %47, %48
  %50 = load double, double* %9, align 8
  %51 = fmul double %49, %50
  %52 = load double, double* %10, align 8
  %53 = fmul double %51, %52
  %54 = load double, double* %6, align 8
  %55 = fmul double %53, %54
  %56 = load double, double* %6, align 8
  %57 = fmul double %55, %56
  %58 = fsub double %46, %57
  %59 = call double @sqrt(double %58) #3
  store double %59, double* %12, align 8
  %60 = load double, double* %12, align 8
  %61 = fcmp oge double %60, 0.000000e+00
  br i1 %61, label %62, label %65

62:                                               ; preds = %2
  %63 = load double, double* %12, align 8
  %64 = call i32 (i8*, ...) @printf(i8* getelementptr inbounds ([7 x i8], [7 x i8]* @.str.1, i64 0, i64 0), double %63)
  br label %67

65:                                               ; preds = %2
  %66 = call i32 (i8*, ...) @printf(i8* getelementptr inbounds ([14 x i8], [14 x i8]* @.str.2, i64 0, i64 0))
  br label %67

67:                                               ; preds = %65, %62
  ret i32 0
}

declare dso_local i32 @__isoc99_scanf(i8*, ...) #1

; Function Attrs: nounwind
declare dso_local double @cos(double) #2

; Function Attrs: nounwind
declare dso_local double @sqrt(double) #2

declare dso_local i32 @printf(i8*, ...) #1


!llvm.module.flags = !{!0}
!llvm.ident = !{!1}

!0 = !{i32 1, !"wchar_size", i32 4}
!1 = !{!"clang version 10.0.0-4ubuntu1 "}
